target datalayout = "e-m:e-p270:32:32-p271:32:32-p272:64:64-i64:64-i128:128-f80:128-n8:16:32:64-S128"
target triple = "x86_64-pc-linux-gnu"

; Function Attrs: nounwind uwtable
define ptr @lv_fs_up(ptr noundef %0) #0 {
  %2 = alloca ptr, align 8
  %3 = alloca ptr, align 8
  %4 = alloca i64, align 8
  %5 = alloca i32, align 4
  %6 = alloca i64, align 8
  store ptr %0, ptr %3, align 8, !tbaa !6
  call void @llvm.lifetime.start.p0(i64 8, ptr %4) #4
  %7 = load ptr, ptr %3, align 8, !tbaa !6
  %8 = call i64 @lv_strlen(ptr noundef %7)
  store i64 %8, ptr %4, align 8, !tbaa !45
  %9 = load i64, ptr %4, align 8, !tbaa !45
  %10 = icmp eq i64 %9, 0
  br i1 %10, label %11, label %13

11:                                               ; preds = %1
  %12 = load ptr, ptr %3, align 8, !tbaa !6
  store ptr %12, ptr %2, align 8
  store i32 1, ptr %5, align 4
  br label %77

13:                                               ; preds = %1
  %14 = load i64, ptr %4, align 8, !tbaa !45
  %15 = add i64 %14, -1
  store i64 %15, ptr %4, align 8, !tbaa !45
  br label %16

16:                                               ; preds = %43, %13
  %17 = load ptr, ptr %3, align 8, !tbaa !6
  %18 = load i64, ptr %4, align 8, !tbaa !45
  %19 = getelementptr inbounds nuw i8, ptr %17, i64 %18
  %20 = load i8, ptr %19, align 1, !tbaa !3
  %21 = sext i8 %20 to i32
  %22 = icmp eq i32 %21, 47
  br i1 %22, label %30, label %23

23:                                               ; preds = %16
  %24 = load ptr, ptr %3, align 8, !tbaa !6
  %25 = load i64, ptr %4, align 8, !tbaa !45
  %26 = getelementptr inbounds nuw i8, ptr %24, i64 %25
  %27 = load i8, ptr %26, align 1, !tbaa !3
  %28 = sext i8 %27 to i32
  %29 = icmp eq i32 %28, 92
  br label %30

30:                                               ; preds = %23, %16
  %31 = phi i1 [ true, %16 ], [ %29, %23 ]
  br i1 %31, label %32, label %44

32:                                               ; preds = %30
  %33 = load ptr, ptr %3, align 8, !tbaa !6
  %34 = load i64, ptr %4, align 8, !tbaa !45
  %35 = getelementptr inbounds nuw i8, ptr %33, i64 %34
  store i8 0, ptr %35, align 1, !tbaa !3
  %36 = load i64, ptr %4, align 8, !tbaa !45
  %37 = icmp ugt i64 %36, 0
  br i1 %37, label %38, label %41

38:                                               ; preds = %32
  %39 = load i64, ptr %4, align 8, !tbaa !45
  %40 = add i64 %39, -1
  store i64 %40, ptr %4, align 8, !tbaa !45
  br label %43

41:                                               ; preds = %32
  %42 = load ptr, ptr %3, align 8, !tbaa !6
  store ptr %42, ptr %2, align 8
  store i32 1, ptr %5, align 4
  br label %77

43:                                               ; preds = %38
  br label %16, !llvm.loop !49

44:                                               ; preds = %30
  call void @llvm.lifetime.start.p0(i64 8, ptr %6) #4
  %45 = load i64, ptr %4, align 8, !tbaa !45
  store i64 %45, ptr %6, align 8, !tbaa !45
  br label %46

46:                                               ; preds = %65, %44
  %47 = load i64, ptr %6, align 8, !tbaa !45
  %48 = icmp ugt i64 %47, 0
  br i1 %48, label %49, label %68

49:                                               ; preds = %46
  %50 = load ptr, ptr %3, align 8, !tbaa !6
  %51 = load i64, ptr %6, align 8, !tbaa !45
  %52 = getelementptr inbounds nuw i8, ptr %50, i64 %51
  %53 = load i8, ptr %52, align 1, !tbaa !3
  %54 = sext i8 %53 to i32
  %55 = icmp eq i32 %54, 47
  br i1 %55, label %63, label %56

56:                                               ; preds = %49
  %57 = load ptr, ptr %3, align 8, !tbaa !6
  %58 = load i64, ptr %6, align 8, !tbaa !45
  %59 = getelementptr inbounds nuw i8, ptr %57, i64 %58
  %60 = load i8, ptr %59, align 1, !tbaa !3
  %61 = sext i8 %60 to i32
  %62 = icmp eq i32 %61, 92
  br i1 %62, label %63, label %64

63:                                               ; preds = %56, %49
  br label %68

64:                                               ; preds = %56
  br label %65

65:                                               ; preds = %64
  %66 = load i64, ptr %6, align 8, !tbaa !45
  %67 = add i64 %66, -1
  store i64 %67, ptr %6, align 8, !tbaa !45
  br label %46, !llvm.loop !50

68:                                               ; preds = %63, %46
  %69 = load i64, ptr %6, align 8, !tbaa !45
  %70 = icmp ugt i64 %69, 0
  br i1 %70, label %71, label %75

71:                                               ; preds = %68
  %72 = load ptr, ptr %3, align 8, !tbaa !6
  %73 = load i64, ptr %6, align 8, !tbaa !45
  %74 = getelementptr inbounds nuw i8, ptr %72, i64 %73
  store i8 0, ptr %74, align 1, !tbaa !3
  br label %75

75:                                               ; preds = %71, %68
  %76 = load ptr, ptr %3, align 8, !tbaa !6
  store ptr %76, ptr %2, align 8
  store i32 1, ptr %5, align 4
  call void @llvm.lifetime.end.p0(i64 8, ptr %6) #4
  br label %77

77:                                               ; preds = %75, %41, %11
  call void @llvm.lifetime.end.p0(i64 8, ptr %4) #4
  %78 = load ptr, ptr %2, align 8
  ret ptr %78
}