; Function Attrs: nounwind uwtable
define noundef ptr @lv_fs_up(ptr noundef returned %0) local_unnamed_addr #0 {
  %2 = tail call i64 @lv_strlen(ptr noundef %0) #6
  %3 = icmp eq i64 %2, 0
  br i1 %3, label %.critedge31, label %.preheader32

.preheader32:                                     ; preds = %1, %.critedge
  %.024.in = phi i64 [ %.024, %.critedge ], [ %2, %1 ]
  %.024 = add i64 %.024.in, -1
  %4 = getelementptr inbounds nuw i8, ptr %0, i64 %.024
  %5 = load i8, ptr %4, align 1, !tbaa !13
  switch i8 %5, label %.preheader [
    i8 47, label %.critedge
    i8 92, label %.critedge
  ]

.preheader:                                       ; preds = %.preheader32
  %.not35 = icmp eq i64 %.024, 0
  br i1 %.not35, label %.critedge31, label %.lr.ph

.critedge:                                        ; preds = %.preheader32, %.preheader32
  store i8 0, ptr %4, align 1, !tbaa !13
  %.not29 = icmp eq i64 %.024, 0
  br i1 %.not29, label %.critedge31, label %.preheader32, !llvm.loop !42

.lr.ph:                                           ; preds = %.preheader, %8
  %.036 = phi i64 [ %9, %8 ], [ %.024, %.preheader ]
  %6 = getelementptr inbounds nuw i8, ptr %0, i64 %.036
  %7 = load i8, ptr %6, align 1, !tbaa !13
  switch i8 %7, label %8 [
    i8 47, label %10
    i8 92, label %10
  ]

8:                                                ; preds = %.lr.ph
  %9 = add i64 %.036, -1
  %.not = icmp eq i64 %9, 0
  br i1 %.not, label %.critedge31, label %.lr.ph, !llvm.loop !43

10:                                               ; preds = %.lr.ph, %.lr.ph
  %11 = getelementptr inbounds nuw i8, ptr %0, i64 %.036
  store i8 0, ptr %11, align 1, !tbaa !13
  br label %.critedge31

.critedge31:                                      ; preds = %.critedge, %8, %.preheader, %10, %1
  ret ptr %0
}